; Function Attrs: nounwind uwtable
define dso_local ptr @lookup_rowtype_tupdesc(i32 noundef %0, i32 noundef %1) local_unnamed_addr #0 {
  %3 = tail call fastcc ptr @lookup_rowtype_tupdesc_internal(i32 noundef %0, i32 noundef %1, i1 noundef zeroext false)
  %4 = getelementptr inbounds nuw i8, ptr %3, i64 12
  %5 = load i32, ptr %4, align 4
  %6 = icmp sgt i32 %5, -1
  br i1 %6, label %7, label %8

7:                                                ; preds = %2
  tail call void @IncrTupleDescRefCount(ptr noundef nonnull %3) #16
  br label %8

8:                                                ; preds = %7, %2
  ret ptr %3
}